target datalayout = "e-m:e-p270:32:32-p271:32:32-p272:64:64-i64:64-i128:128-f80:128-n8:16:32:64-S128"
target triple = "x86_64-unknown-linux-gnu"

@acpi_gbl_max_loop_iterations = external dso_local local_unnamed_addr global i32, align 4
@.str = private unnamed_addr constant [31 x i8] c"Executed AML Breakpoint opcode\00", align 1
@_acpi_module_name = internal constant [10 x i8] c"dscontrol\00", align 1
@.str.1 = private unnamed_addr constant [34 x i8] c"Unknown control opcode=0x%X Op=%p\00", align 1

; Function Attrs: fn_ret_thunk_extern nounwind null_pointer_is_valid
define dso_local i32 @acpi_ds_exec_begin_control_op(ptr noundef %0, ptr nocapture noundef readonly %1) local_unnamed_addr #0 align 16 {
  %3 = getelementptr inbounds i8, ptr %1, i64 10
  %4 = load i16, ptr %3, align 2
  switch i16 %4, label %43 [
    i16 162, label %5
    i16 160, label %18
    i16 161, label %38
  ]

5:                                                ; preds = %2
  %6 = getelementptr inbounds i8, ptr %0, i64 968
  %7 = load ptr, ptr %6, align 8
  %8 = icmp eq ptr %7, null
  br i1 %8, label %18, label %9

9:                                                ; preds = %5
  %10 = getelementptr inbounds i8, ptr %7, i64 24
  %11 = load ptr, ptr %10, align 8
  %12 = getelementptr inbounds i8, ptr %0, i64 64
  %13 = load ptr, ptr %12, align 8
  %14 = getelementptr i8, ptr %13, i64 -1
  %15 = icmp eq ptr %11, %14
  br i1 %15, label %16, label %18

16:                                               ; preds = %9
  %17 = getelementptr inbounds i8, ptr %7, i64 12
  store i16 193, ptr %17, align 4
  br label %43

18:                                               ; preds = %9, %5, %2
  %19 = tail call ptr @acpi_ut_create_control_state() #2
  %20 = icmp eq ptr %19, null
  br i1 %20, label %43, label %21

21:                                               ; preds = %18
  %22 = getelementptr inbounds i8, ptr %0, i64 64
  %23 = load ptr, ptr %22, align 8
  %24 = getelementptr i8, ptr %23, i64 -1
  %25 = getelementptr inbounds i8, ptr %19, i64 24
  store ptr %24, ptr %25, align 8
  %26 = getelementptr inbounds i8, ptr %0, i64 88
  %27 = load ptr, ptr %26, align 8
  %28 = getelementptr inbounds i8, ptr %19, i64 32
  store ptr %27, ptr %28, align 8
  %29 = load i16, ptr %3, align 2
  %30 = getelementptr inbounds i8, ptr %19, i64 14
  store i16 %29, ptr %30, align 2
  %31 = tail call i64 @acpi_os_get_timer() #2
  %32 = load i32, ptr @acpi_gbl_max_loop_iterations, align 4
  %33 = zext i32 %32 to i64
  %34 = mul nuw nsw i64 %33, 10000000
  %35 = add i64 %34, %31
  %36 = getelementptr inbounds i8, ptr %19, i64 40
  store i64 %35, ptr %36, align 8
  %37 = getelementptr inbounds i8, ptr %0, i64 968
  tail call void @acpi_ut_push_generic_state(ptr noundef %37, ptr noundef nonnull %19) #2
  br label %43

38:                                               ; preds = %2
  %39 = getelementptr inbounds i8, ptr %0, i64 18
  %40 = load i8, ptr %39, align 2
  %41 = icmp eq i8 %40, 0
  %42 = select i1 %41, i32 0, i32 16388
  br label %43

43:                                               ; preds = %38, %21, %18, %16, %2
  %44 = phi i32 [ 0, %2 ], [ 0, %21 ], [ 0, %16 ], [ 4, %18 ], [ %42, %38 ]
  ret i32 %44
}

; Function Attrs: null_pointer_is_valid
declare dso_local ptr @acpi_ut_create_control_state() local_unnamed_addr #1

; Function Attrs: null_pointer_is_valid
declare dso_local i64 @acpi_os_get_timer() local_unnamed_addr #1

; Function Attrs: null_pointer_is_valid
declare dso_local void @acpi_ut_push_generic_state(ptr noundef, ptr noundef) local_unnamed_addr #1

; Function Attrs: fn_ret_thunk_extern nounwind null_pointer_is_valid
define dso_local i32 @acpi_ds_exec_end_control_op(ptr noundef %0, ptr noundef %1) local_unnamed_addr #0 align 16 {
  %3 = getelementptr inbounds i8, ptr %1, i64 10
  %4 = load i16, ptr %3, align 2
  switch i16 %4, label %112 [
    i16 160, label %5
    i16 161, label %114
    i16 162, label %13
    i16 164, label %31
    i16 163, label %114
    i16 204, label %84
    i16 165, label %86
    i16 159, label %86
  ]

5:                                                ; preds = %2
  %6 = getelementptr inbounds i8, ptr %0, i64 968
  %7 = load ptr, ptr %6, align 8
  %8 = getelementptr inbounds i8, ptr %7, i64 10
  %9 = load i16, ptr %8, align 2
  %10 = trunc i16 %9 to i8
  %11 = getelementptr inbounds i8, ptr %0, i64 18
  store i8 %10, ptr %11, align 2
  %12 = tail call ptr @acpi_ut_pop_generic_state(ptr noundef %6) #2
  tail call void @acpi_ut_delete_generic_state(ptr noundef %12) #2
  br label %114

13:                                               ; preds = %2
  %14 = getelementptr inbounds i8, ptr %0, i64 968
  %15 = load ptr, ptr %14, align 8
  %16 = getelementptr inbounds i8, ptr %15, i64 10
  %17 = load i16, ptr %16, align 2
  %18 = icmp eq i16 %17, 0
  br i1 %18, label %29, label %19

19:                                               ; preds = %13
  %20 = getelementptr inbounds i8, ptr %15, i64 40
  %21 = load i64, ptr %20, align 8
  %22 = tail call i64 @acpi_os_get_timer() #2
  %23 = sub i64 %21, %22
  %24 = icmp slt i64 %23, 0
  br i1 %24, label %114, label %25

25:                                               ; preds = %19
  %26 = getelementptr inbounds i8, ptr %15, i64 24
  %27 = load ptr, ptr %26, align 8
  %28 = getelementptr inbounds i8, ptr %0, i64 952
  store ptr %27, ptr %28, align 8
  br label %114

29:                                               ; preds = %13
  %30 = tail call ptr @acpi_ut_pop_generic_state(ptr noundef %14) #2
  tail call void @acpi_ut_delete_generic_state(ptr noundef %30) #2
  br label %114

31:                                               ; preds = %2
  %32 = getelementptr inbounds i8, ptr %1, i64 40
  %33 = load ptr, ptr %32, align 8
  %34 = icmp eq ptr %33, null
  br i1 %34, label %46, label %35

35:                                               ; preds = %31
  tail call void @acpi_ds_clear_implicit_return(ptr noundef %0) #2
  %36 = load ptr, ptr %32, align 8
  %37 = tail call i32 @acpi_ds_create_operands(ptr noundef %0, ptr noundef %36) #2
  %38 = icmp eq i32 %37, 0
  br i1 %38, label %39, label %114

39:                                               ; preds = %35
  %40 = getelementptr inbounds i8, ptr %0, i64 872
  %41 = tail call i32 @acpi_ex_resolve_to_value(ptr noundef %40, ptr noundef %0) #2
  %42 = icmp eq i32 %41, 0
  br i1 %42, label %43, label %114

43:                                               ; preds = %39
  %44 = load ptr, ptr %40, align 8
  %45 = getelementptr inbounds i8, ptr %0, i64 1072
  store ptr %44, ptr %45, align 8
  br label %114

46:                                               ; preds = %31
  %47 = getelementptr inbounds i8, ptr %0, i64 25
  %48 = load i8, ptr %47, align 1
  %49 = icmp eq i8 %48, 0
  br i1 %49, label %74, label %50

50:                                               ; preds = %46
  tail call void @acpi_ds_clear_implicit_return(ptr noundef %0) #2
  %51 = getelementptr inbounds i8, ptr %0, i64 1064
  %52 = load ptr, ptr %51, align 8
  %53 = getelementptr inbounds i8, ptr %52, i64 16
  %54 = load ptr, ptr %53, align 8
  %55 = getelementptr inbounds i8, ptr %54, i64 8
  %56 = load i8, ptr %55, align 8
  %57 = icmp eq i8 %56, 14
  br i1 %57, label %58, label %69

58:                                               ; preds = %50
  %59 = getelementptr inbounds i8, ptr %54, i64 9
  %60 = load i8, ptr %59, align 1
  %61 = icmp eq i8 %60, 20
  br i1 %61, label %62, label %69

62:                                               ; preds = %58
  %63 = getelementptr inbounds i8, ptr %54, i64 13
  %64 = load i8, ptr %63, align 1
  %65 = icmp eq i8 %64, 3
  br i1 %65, label %69, label %66

66:                                               ; preds = %62
  %67 = tail call i32 @acpi_ex_resolve_to_value(ptr noundef %53, ptr noundef %0) #2
  %68 = icmp eq i32 %67, 0
  br i1 %68, label %69, label %114

69:                                               ; preds = %66, %62, %58, %50
  %70 = load ptr, ptr %51, align 8
  %71 = getelementptr inbounds i8, ptr %70, i64 16
  %72 = load ptr, ptr %71, align 8
  %73 = getelementptr inbounds i8, ptr %0, i64 1072
  store ptr %72, ptr %73, align 8
  br label %114

74:                                               ; preds = %46
  %75 = getelementptr inbounds i8, ptr %0, i64 13
  %76 = load i8, ptr %75, align 1
  %77 = icmp eq i8 %76, 0
  br i1 %77, label %81, label %78

78:                                               ; preds = %74
  %79 = getelementptr inbounds i8, ptr %0, i64 872
  %80 = load ptr, ptr %79, align 8
  tail call void @acpi_ut_remove_reference(ptr noundef %80) #2
  br label %81

81:                                               ; preds = %78, %74
  %82 = getelementptr inbounds i8, ptr %0, i64 872
  store ptr null, ptr %82, align 8
  store i8 0, ptr %75, align 1
  %83 = getelementptr inbounds i8, ptr %0, i64 1072
  store ptr null, ptr %83, align 8
  br label %114

84:                                               ; preds = %2
  %85 = tail call i32 @acpi_os_signal(i32 noundef 1, ptr noundef nonnull @.str) #2
  br label %114

86:                                               ; preds = %2, %2
  %87 = getelementptr inbounds i8, ptr %0, i64 968
  %88 = load ptr, ptr %87, align 8
  %89 = icmp eq ptr %88, null
  br i1 %89, label %114, label %90

90:                                               ; preds = %86
  %91 = getelementptr inbounds i8, ptr %88, i64 14
  %92 = load i16, ptr %91, align 2
  %93 = icmp eq i16 %92, 162
  br i1 %93, label %102, label %98

94:                                               ; preds = %98
  %95 = getelementptr inbounds i8, ptr %100, i64 14
  %96 = load i16, ptr %95, align 2
  %97 = icmp eq i16 %96, 162
  br i1 %97, label %102, label %98, !llvm.loop !5

98:                                               ; preds = %94, %90
  %99 = tail call ptr @acpi_ut_pop_generic_state(ptr noundef %87) #2
  tail call void @acpi_ut_delete_generic_state(ptr noundef %99) #2
  %100 = load ptr, ptr %87, align 8
  %101 = icmp eq ptr %100, null
  br i1 %101, label %114, label %94, !llvm.loop !5

102:                                              ; preds = %94, %90
  %103 = phi i1 [ %89, %90 ], [ %101, %94 ]
  %104 = phi ptr [ %88, %90 ], [ %100, %94 ]
  br i1 %103, label %114, label %105

105:                                              ; preds = %102
  %106 = getelementptr inbounds i8, ptr %104, i64 32
  %107 = load ptr, ptr %106, align 8
  %108 = getelementptr inbounds i8, ptr %0, i64 952
  store ptr %107, ptr %108, align 8
  %109 = load i16, ptr %3, align 2
  %110 = icmp eq i16 %109, 165
  %111 = select i1 %110, i32 16393, i32 16394
  br label %114

112:                                              ; preds = %2
  %113 = zext i16 %4 to i32
  tail call void (ptr, i32, ptr, ...) @acpi_error(ptr noundef nonnull @_acpi_module_name, i32 noundef 364, ptr noundef nonnull @.str.1, i32 noundef %113, ptr noundef %1) #2
  br label %114

114:                                              ; preds = %112, %105, %102, %98, %86, %84, %81, %69, %66, %43, %39, %35, %29, %25, %19, %5, %2, %2
  %115 = phi i32 [ %37, %35 ], [ %41, %39 ], [ %67, %66 ], [ 12314, %102 ], [ 12289, %112 ], [ %85, %84 ], [ 16386, %25 ], [ 0, %29 ], [ 0, %2 ], [ 0, %2 ], [ 0, %5 ], [ 12321, %19 ], [ 16387, %69 ], [ 16387, %81 ], [ 16387, %43 ], [ %111, %105 ], [ 12314, %86 ], [ 12314, %98 ]
  ret i32 %115
}

; Function Attrs: null_pointer_is_valid
declare dso_local ptr @acpi_ut_pop_generic_state(ptr noundef) local_unnamed_addr #1

; Function Attrs: null_pointer_is_valid
declare dso_local void @acpi_ut_delete_generic_state(ptr noundef) local_unnamed_addr #1

; Function Attrs: null_pointer_is_valid
declare dso_local void @acpi_ds_clear_implicit_return(ptr noundef) local_unnamed_addr #1

; Function Attrs: null_pointer_is_valid
declare dso_local i32 @acpi_ds_create_operands(ptr noundef, ptr noundef) local_unnamed_addr #1

; Function Attrs: null_pointer_is_valid
declare dso_local i32 @acpi_ex_resolve_to_value(ptr noundef, ptr noundef) local_unnamed_addr #1

; Function Attrs: null_pointer_is_valid
declare dso_local void @acpi_ut_remove_reference(ptr noundef) local_unnamed_addr #1

; Function Attrs: null_pointer_is_valid
declare dso_local i32 @acpi_os_signal(i32 noundef, ptr noundef) local_unnamed_addr #1

; Function Attrs: null_pointer_is_valid
declare dso_local void @acpi_error(ptr noundef, i32 noundef, ptr noundef, ...) local_unnamed_addr #1


!llvm.module.flags = !{!0, !1, !2, !3, !4}

!0 = !{i32 1, !"wchar_size", i32 2}
!1 = !{i32 8, !"cf-protection-branch", i32 1}
!2 = !{i32 4, !"function_return_thunk_extern", i32 1}
!3 = !{i32 4, !"indirect_branch_cs_prefix", i32 1}
!4 = !{i32 4, !"SkipRaxSetup", i32 1}
!5 = distinct !{!5, !6, !7}
!6 = !{!"llvm.loop.mustprogress"}
!7 = !{!"llvm.loop.unroll.disable"}
